target datalayout = "e-m:e-p270:32:32-p271:32:32-p272:64:64-i64:64-i128:128-f80:128-n8:16:32:64-S128"
target triple = "x86_64-pc-linux-gnu"

@.str.10 = private unnamed_addr constant [1 x i8] zeroinitializer, align 1
@the_repository = external global ptr, align 8
@git_gettext_enabled = external global i32, align 4
@.str.14 = private unnamed_addr constant [27 x i8] c"rebase.missingcommitscheck\00", align 1
@.str.15 = private unnamed_addr constant [7 x i8] c"ignore\00", align 1
@.str.16 = private unnamed_addr constant [5 x i8] c"warn\00", align 1
@.str.17 = private unnamed_addr constant [6 x i8] c"error\00", align 1
@.str.18 = private unnamed_addr constant [73 x i8] c"unrecognized setting %s for option rebase.missingCommitsCheck. Ignoring.\00", align 1

; Function Attrs: inlinehint nounwind uwtable
define internal ptr @_(ptr noundef %0) #2 {
  %2 = alloca ptr, align 8
  %3 = alloca ptr, align 8
  store ptr %0, ptr %3, align 8, !tbaa !8
  %4 = load ptr, ptr %3, align 8, !tbaa !8
  %5 = load i8, ptr %4, align 1, !tbaa !13
  %6 = icmp ne i8 %5, 0
  br i1 %6, label %8, label %7

7:                                                ; preds = %1
  store ptr @.str.10, ptr %2, align 8
  br label %16

8:                                                ; preds = %1
  %9 = load i32, ptr @git_gettext_enabled, align 4, !tbaa !4
  %10 = icmp ne i32 %9, 0
  br i1 %10, label %13, label %11

11:                                               ; preds = %8
  %12 = load ptr, ptr %3, align 8, !tbaa !8
  store ptr %12, ptr %2, align 8
  br label %16

13:                                               ; preds = %8
  %14 = load ptr, ptr %3, align 8, !tbaa !8
  %15 = call ptr @dcgettext(ptr noundef null, ptr noundef %14, i32 noundef 5) #8
  store ptr %15, ptr %2, align 8
  br label %16

16:                                               ; preds = %13, %11, %7
  %17 = load ptr, ptr %2, align 8
  ret ptr %17
}

; Function Attrs: inlinehint nounwind uwtable
define internal i32 @git_config_get_value(ptr noundef %0, ptr noundef %1) #2 {
  %3 = alloca ptr, align 8
  %4 = alloca ptr, align 8
  store ptr %0, ptr %3, align 8, !tbaa !8
  store ptr %1, ptr %4, align 8, !tbaa !50
  %5 = load ptr, ptr @the_repository, align 8, !tbaa !19
  %6 = load ptr, ptr %3, align 8, !tbaa !8
  %7 = load ptr, ptr %4, align 8, !tbaa !50
  %8 = call i32 @repo_config_get_value(ptr noundef %5, ptr noundef %6, ptr noundef %7)
  ret i32 %8
}

; Function Attrs: nounwind uwtable
define internal i32 @get_missing_commit_check_level() #0 {
  %1 = alloca i32, align 4
  %2 = alloca ptr, align 8
  %3 = alloca i32, align 4
  call void @llvm.lifetime.start.p0(i64 8, ptr %2) #8
  %4 = call i32 @git_config_get_value(ptr noundef @.str.14, ptr noundef %2)
  %5 = icmp ne i32 %4, 0
  br i1 %5, label %10, label %6

6:                                                ; preds = %0
  %7 = load ptr, ptr %2, align 8, !tbaa !8
  %8 = call i32 @strcasecmp(ptr noundef @.str.15, ptr noundef %7) #9
  %9 = icmp ne i32 %8, 0
  br i1 %9, label %11, label %10

10:                                               ; preds = %6, %0
  store i32 0, ptr %1, align 4
  store i32 1, ptr %3, align 4
  br label %24

11:                                               ; preds = %6
  %12 = load ptr, ptr %2, align 8, !tbaa !8
  %13 = call i32 @strcasecmp(ptr noundef @.str.16, ptr noundef %12) #9
  %14 = icmp ne i32 %13, 0
  br i1 %14, label %16, label %15

15:                                               ; preds = %11
  store i32 1, ptr %1, align 4
  store i32 1, ptr %3, align 4
  br label %24

16:                                               ; preds = %11
  %17 = load ptr, ptr %2, align 8, !tbaa !8
  %18 = call i32 @strcasecmp(ptr noundef @.str.17, ptr noundef %17) #9
  %19 = icmp ne i32 %18, 0
  br i1 %19, label %21, label %20

20:                                               ; preds = %16
  store i32 2, ptr %1, align 4
  store i32 1, ptr %3, align 4
  br label %24

21:                                               ; preds = %16
  %22 = call ptr @_(ptr noundef @.str.18)
  %23 = load ptr, ptr %2, align 8, !tbaa !8
  call void (ptr, ...) @warning(ptr noundef %22, ptr noundef %23)
  store i32 0, ptr %1, align 4
  store i32 1, ptr %3, align 4
  br label %24

24:                                               ; preds = %21, %20, %15, %10
  call void @llvm.lifetime.end.p0(i64 8, ptr %2) #8
  %25 = load i32, ptr %1, align 4
  ret i32 %25
}