; Function Attrs: nounwind uwtable
define internal fastcc range(i32 0, 3) i32 @get_missing_commit_check_level() unnamed_addr #0 {
  %1 = alloca ptr, align 8
  call void @llvm.lifetime.start.p0(i64 8, ptr nonnull %1) #10
  %2 = load ptr, ptr @the_repository, align 8, !tbaa !17
  %3 = call i32 @repo_config_get_value(ptr noundef %2, ptr noundef nonnull @.str.14, ptr noundef nonnull %1) #10
  %.not = icmp eq i32 %3, 0
  br i1 %.not, label %4, label %16

4:                                                ; preds = %0
  %5 = load ptr, ptr %1, align 8, !tbaa !16
  %6 = call i32 @strcasecmp(ptr noundef nonnull @.str.15, ptr noundef %5) #11
  %.not1 = icmp eq i32 %6, 0
  br i1 %.not1, label %16, label %7

7:                                                ; preds = %4
  %8 = call i32 @strcasecmp(ptr noundef nonnull @.str.16, ptr noundef %5) #11
  %.not2 = icmp eq i32 %8, 0
  br i1 %.not2, label %16, label %9

9:                                                ; preds = %7
  %10 = call i32 @strcasecmp(ptr noundef nonnull @.str.17, ptr noundef %5) #11
  %.not3 = icmp eq i32 %10, 0
  br i1 %.not3, label %16, label %11

11:                                               ; preds = %9
  %12 = load i32, ptr @git_gettext_enabled, align 4, !tbaa !4
  %.not4.i = icmp eq i32 %12, 0
  br i1 %.not4.i, label %_.exit, label %13

13:                                               ; preds = %11
  %14 = call ptr @dcgettext(ptr noundef null, ptr noundef nonnull @.str.18, i32 noundef 5) #10
  %.pre = load ptr, ptr %1, align 8, !tbaa !16
  br label %_.exit

_.exit:                                           ; preds = %11, %13
  %15 = phi ptr [ %.pre, %13 ], [ %5, %11 ]
  %.0.i = phi ptr [ %14, %13 ], [ @.str.18, %11 ]
  call void (ptr, ...) @warning(ptr noundef %.0.i, ptr noundef %15) #10
  br label %16

16:                                               ; preds = %9, %7, %0, %4, %_.exit
  %.0 = phi i32 [ 0, %_.exit ], [ 0, %4 ], [ 0, %0 ], [ 1, %7 ], [ 2, %9 ]
  call void @llvm.lifetime.end.p0(i64 8, ptr nonnull %1) #10
  ret i32 %.0
}